target datalayout = "e-m:e-p270:32:32-p271:32:32-p272:64:64-i64:64-i128:128-f80:128-n8:16:32:64-S128"
target triple = "x86_64-pc-linux-gnu"

%"class.llvm::PointerIntPair" = type { %"struct.llvm::detail::PunnedPointer" }
%"struct.llvm::detail::PunnedPointer" = type { [8 x i8] }
%"class.clang::CharUnits" = type { i64 }
%"class.clang::QualType" = type { %"class.llvm::PointerIntPair.44" }
%"class.llvm::PointerIntPair.44" = type { %"struct.llvm::detail::PunnedPointer.45" }
%"struct.llvm::detail::PunnedPointer.45" = type { [8 x i8] }
%"class.clang::CodeGen::Address" = type { %"class.llvm::PointerIntPair", ptr, %"class.clang::CharUnits", %"class.clang::CodeGen::CGPointerAuthInfo", ptr }
%"class.clang::CodeGen::CGPointerAuthInfo" = type { i8, ptr }
%"class.clang::CodeGen::AggValueSlot" = type <{ %"class.clang::CodeGen::Address", %"class.clang::Qualifiers", i8, [7 x i8] }>
%"class.clang::Qualifiers" = type { i64 }
%"class.clang::CodeGen::RValue" = type <{ %union.anon.930, i8, [7 x i8] }>
%union.anon.930 = type { %"class.clang::CodeGen::Address" }
%"class.clang::CodeGen::LValue" = type { i32, %union.anon.932, %union.anon.933, %"class.clang::QualType", %"class.clang::Qualifiers", i8, %"class.clang::CodeGen::LValueBaseInfo", %"struct.clang::CodeGen::TBAAAccessInfo", ptr }
%union.anon.932 = type { %"class.clang::CodeGen::Address" }
%union.anon.933 = type { ptr }
%"class.clang::CodeGen::LValueBaseInfo" = type { i32 }
%"struct.clang::CodeGen::TBAAAccessInfo" = type { i32, ptr, ptr, i64, i64 }
%"struct.(anonymous namespace)::LValueOrRValue" = type { %"class.clang::CodeGen::LValue", %"class.clang::CodeGen::RValue" }

; Function Attrs: mustprogress nounwind uwtable
define linkonce_odr hidden noundef ptr @_ZN4llvm21PointerLikeTypeTraitsIPNS_5ValueEE18getFromVoidPointerEPv(ptr noundef %0) #1 comdat align 2 {
  %2 = alloca ptr, align 8
  store ptr %0, ptr %2, align 8
  %3 = load ptr, ptr %2, align 8
  ret ptr %3
}

; Function Attrs: mustprogress nounwind uwtable
define linkonce_odr hidden noundef i64 @_ZNK4llvm6detail13PunnedPointerIPNS_5ValueEE5asIntEv(ptr noundef nonnull align 8 dereferenceable(8) %0) #1 comdat align 2 {
  %2 = alloca ptr, align 8
  %3 = alloca i64, align 8
  store ptr %0, ptr %2, align 8
  %4 = load ptr, ptr %2, align 8
  store i64 0, ptr %3, align 8
  %5 = getelementptr inbounds nuw %"struct.llvm::detail::PunnedPointer", ptr %4, i32 0, i32 0
  %6 = getelementptr inbounds [8 x i8], ptr %5, i64 0, i64 0
  call void @llvm.memcpy.p0.p0.i64(ptr align 8 %3, ptr align 8 %6, i64 8, i1 false)
  %7 = load i64, ptr %3, align 8
  ret i64 %7
}

; Function Attrs: mustprogress nounwind uwtable
define linkonce_odr hidden noundef nonnull align 8 dereferenceable(8) ptr @_ZN4llvm6detail13PunnedPointerIPNS_5ValueEEaSEl(ptr noundef nonnull align 8 dereferenceable(8) %0, i64 noundef %1) #1 comdat align 2 {
  %3 = alloca ptr, align 8
  %4 = alloca i64, align 8
  store ptr %0, ptr %3, align 8
  store i64 %1, ptr %4, align 8
  %5 = load ptr, ptr %3, align 8
  %6 = getelementptr inbounds nuw %"struct.llvm::detail::PunnedPointer", ptr %5, i32 0, i32 0
  %7 = getelementptr inbounds [8 x i8], ptr %6, i64 0, i64 0
  call void @llvm.memcpy.p0.p0.i64(ptr align 8 %7, ptr align 8 %4, i64 8, i1 false)
  ret ptr %5
}

; Function Attrs: mustprogress nounwind uwtable
define linkonce_odr hidden noundef i64 @_ZN4llvm18PointerIntPairInfoIPNS_5ValueELj1ENS_21PointerLikeTypeTraitsIS2_EEE9updateIntEll(i64 noundef %0, i64 noundef %1) #1 comdat align 2 {
  %3 = alloca i64, align 8
  %4 = alloca i64, align 8
  %5 = alloca i64, align 8
  store i64 %0, ptr %3, align 8
  store i64 %1, ptr %4, align 8
  %6 = load i64, ptr %4, align 8
  store i64 %6, ptr %5, align 8
  %7 = load i64, ptr %3, align 8
  %8 = and i64 %7, -5
  %9 = load i64, ptr %5, align 8
  %10 = shl i64 %9, 2
  %11 = or i64 %8, %10
  ret i64 %11
}

; Function Attrs: mustprogress nounwind uwtable
define linkonce_odr hidden noundef ptr @_ZN4llvm18PointerIntPairInfoIPNS_5ValueELj1ENS_21PointerLikeTypeTraitsIS2_EEE10getPointerEl(i64 noundef %0) #1 comdat align 2 {
  %2 = alloca i64, align 8
  store i64 %0, ptr %2, align 8
  %3 = load i64, ptr %2, align 8
  %4 = and i64 %3, -8
  %5 = inttoptr i64 %4 to ptr
  %6 = call noundef ptr @_ZN4llvm21PointerLikeTypeTraitsIPNS_5ValueEE18getFromVoidPointerEPv(ptr noundef %5)
  ret ptr %6
}

; Function Attrs: mustprogress nounwind uwtable
define linkonce_odr hidden noundef i64 @_ZNK4llvm6detail13PunnedPointerIPNS_5ValueEEcvlEv(ptr noundef nonnull align 8 dereferenceable(8) %0) #1 comdat align 2 {
  %2 = alloca ptr, align 8
  store ptr %0, ptr %2, align 8
  %3 = load ptr, ptr %2, align 8
  %4 = call noundef i64 @_ZNK4llvm6detail13PunnedPointerIPNS_5ValueEE5asIntEv(ptr noundef nonnull align 8 dereferenceable(8) %3)
  ret i64 %4
}

; Function Attrs: mustprogress nounwind uwtable
define linkonce_odr hidden void @_ZN4llvm6detail13PunnedPointerIPNS_5ValueEEC2El(ptr noundef nonnull align 8 dereferenceable(8) %0, i64 noundef %1) unnamed_addr #1 comdat align 2 {
  %3 = alloca ptr, align 8
  %4 = alloca i64, align 8
  store ptr %0, ptr %3, align 8
  store i64 %1, ptr %4, align 8
  %5 = load ptr, ptr %3, align 8
  %6 = load i64, ptr %4, align 8
  %7 = call noundef nonnull align 8 dereferenceable(8) ptr @_ZN4llvm6detail13PunnedPointerIPNS_5ValueEEaSEl(ptr noundef nonnull align 8 dereferenceable(8) %5, i64 noundef %6)
  ret void
}

; Function Attrs: mustprogress nounwind uwtable
define linkonce_odr hidden void @_ZNR4llvm14PointerIntPairIPNS_5ValueELj1EbNS_21PointerLikeTypeTraitsIS2_EENS_18PointerIntPairInfoIS2_Lj1ES4_EEE6setIntEb(ptr noundef nonnull align 8 dereferenceable(8) %0, i1 noundef zeroext %1) #1 comdat align 2 {
  %3 = alloca ptr, align 8
  %4 = alloca i8, align 1
  store ptr %0, ptr %3, align 8
  %5 = zext i1 %1 to i8
  store i8 %5, ptr %4, align 1
  %6 = load ptr, ptr %3, align 8
  %7 = getelementptr inbounds nuw %"class.llvm::PointerIntPair", ptr %6, i32 0, i32 0
  %8 = call noundef i64 @_ZNK4llvm6detail13PunnedPointerIPNS_5ValueEEcvlEv(ptr noundef nonnull align 8 dereferenceable(8) %7)
  %9 = load i8, ptr %4, align 1
  %10 = trunc i8 %9 to i1
  %11 = zext i1 %10 to i64
  %12 = call noundef i64 @_ZN4llvm18PointerIntPairInfoIPNS_5ValueELj1ENS_21PointerLikeTypeTraitsIS2_EEE9updateIntEll(i64 noundef %8, i64 noundef %11)
  %13 = getelementptr inbounds nuw %"class.llvm::PointerIntPair", ptr %6, i32 0, i32 0
  %14 = call noundef nonnull align 8 dereferenceable(8) ptr @_ZN4llvm6detail13PunnedPointerIPNS_5ValueEEaSEl(ptr noundef nonnull align 8 dereferenceable(8) %13, i64 noundef %12)
  ret void
}

; Function Attrs: mustprogress nounwind uwtable
define linkonce_odr hidden noundef ptr @_ZNK4llvm14PointerIntPairIPNS_5ValueELj1EbNS_21PointerLikeTypeTraitsIS2_EENS_18PointerIntPairInfoIS2_Lj1ES4_EEE10getPointerEv(ptr noundef nonnull align 8 dereferenceable(8) %0) #1 comdat align 2 {
  %2 = alloca ptr, align 8
  store ptr %0, ptr %2, align 8
  %3 = load ptr, ptr %2, align 8
  %4 = getelementptr inbounds nuw %"class.llvm::PointerIntPair", ptr %3, i32 0, i32 0
  %5 = call noundef i64 @_ZNK4llvm6detail13PunnedPointerIPNS_5ValueEEcvlEv(ptr noundef nonnull align 8 dereferenceable(8) %4)
  %6 = call noundef ptr @_ZN4llvm18PointerIntPairInfoIPNS_5ValueELj1ENS_21PointerLikeTypeTraitsIS2_EEE10getPointerEl(i64 noundef %5)
  ret ptr %6
}

; Function Attrs: mustprogress nounwind uwtable
define linkonce_odr hidden void @_ZN5clang7CodeGen17CGPointerAuthInfoC2Ev(ptr noundef nonnull align 8 dereferenceable(16) %0) unnamed_addr #1 comdat align 2 {
  %2 = alloca ptr, align 8
  store ptr %0, ptr %2, align 8
  %3 = load ptr, ptr %2, align 8
  %4 = load i8, ptr %3, align 8
  %5 = and i8 %4, -4
  %6 = or i8 %5, 0
  store i8 %6, ptr %3, align 8
  %7 = load i8, ptr %3, align 8
  %8 = and i8 %7, -5
  %9 = or i8 %8, 0
  store i8 %9, ptr %3, align 8
  %10 = load i8, ptr %3, align 8
  %11 = and i8 %10, -9
  %12 = or i8 %11, 0
  store i8 %12, ptr %3, align 8
  %13 = load i8, ptr %3, align 8
  %14 = and i8 %13, -49
  %15 = or i8 %14, 0
  store i8 %15, ptr %3, align 8
  %16 = getelementptr inbounds nuw %"class.clang::CodeGen::CGPointerAuthInfo", ptr %3, i32 0, i32 1
  store ptr null, ptr %16, align 8
  ret void
}

; Function Attrs: mustprogress nounwind uwtable
define linkonce_odr hidden void @_ZN5clang9CharUnitsC2Ev(ptr noundef nonnull align 8 dereferenceable(8) %0) unnamed_addr #1 comdat align 2 {
  %2 = alloca ptr, align 8
  store ptr %0, ptr %2, align 8
  %3 = load ptr, ptr %2, align 8
  %4 = getelementptr inbounds nuw %"class.clang::CharUnits", ptr %3, i32 0, i32 0
  store i64 0, ptr %4, align 8
  ret void
}

; Function Attrs: mustprogress nounwind uwtable
define linkonce_odr hidden void @_ZN4llvm14PointerIntPairIPNS_5ValueELj1EbNS_21PointerLikeTypeTraitsIS2_EENS_18PointerIntPairInfoIS2_Lj1ES4_EEEC2Ev(ptr noundef nonnull align 8 dereferenceable(8) %0) unnamed_addr #1 comdat align 2 {
  %2 = alloca ptr, align 8
  store ptr %0, ptr %2, align 8
  %3 = load ptr, ptr %2, align 8
  %4 = getelementptr inbounds nuw %"class.llvm::PointerIntPair", ptr %3, i32 0, i32 0
  call void @_ZN4llvm6detail13PunnedPointerIPNS_5ValueEEC2El(ptr noundef nonnull align 8 dereferenceable(8) %4, i64 noundef 0)
  ret void
}

; Function Attrs: mustprogress nounwind uwtable
define linkonce_odr hidden void @_ZN5clang7CodeGen12AggValueSlotC2ENS0_7AddressENS_10QualifiersEbbbbbb(ptr noundef nonnull align 8 dereferenceable(57) %0, ptr noundef byval(%"class.clang::CodeGen::Address") align 8 %1, i64 %2, i1 noundef zeroext %3, i1 noundef zeroext %4, i1 noundef zeroext %5, i1 noundef zeroext %6, i1 noundef zeroext %7, i1 noundef zeroext %8) unnamed_addr #1 comdat align 2 {
  %10 = alloca %"class.clang::Qualifiers", align 8
  %11 = alloca ptr, align 8
  %12 = alloca i8, align 1
  %13 = alloca i8, align 1
  %14 = alloca i8, align 1
  %15 = alloca i8, align 1
  %16 = alloca i8, align 1
  %17 = alloca i8, align 1
  %18 = getelementptr inbounds nuw %"class.clang::Qualifiers", ptr %10, i32 0, i32 0
  store i64 %2, ptr %18, align 8
  store ptr %0, ptr %11, align 8
  %19 = zext i1 %3 to i8
  store i8 %19, ptr %12, align 1
  %20 = zext i1 %4 to i8
  store i8 %20, ptr %13, align 1
  %21 = zext i1 %5 to i8
  store i8 %21, ptr %14, align 1
  %22 = zext i1 %6 to i8
  store i8 %22, ptr %15, align 1
  %23 = zext i1 %7 to i8
  store i8 %23, ptr %16, align 1
  %24 = zext i1 %8 to i8
  store i8 %24, ptr %17, align 1
  %25 = load ptr, ptr %11, align 8
  %26 = getelementptr inbounds nuw %"class.clang::CodeGen::AggValueSlot", ptr %25, i32 0, i32 0
  call void @llvm.memcpy.p0.p0.i64(ptr align 8 %26, ptr align 8 %1, i64 48, i1 false)
  %27 = getelementptr inbounds nuw %"class.clang::CodeGen::AggValueSlot", ptr %25, i32 0, i32 1
  call void @llvm.memcpy.p0.p0.i64(ptr align 8 %27, ptr align 8 %10, i64 8, i1 false)
  %28 = getelementptr inbounds nuw %"class.clang::CodeGen::AggValueSlot", ptr %25, i32 0, i32 2
  %29 = load i8, ptr %12, align 1
  %30 = trunc i8 %29 to i1
  %31 = zext i1 %30 to i8
  %32 = load i8, ptr %28, align 8
  %33 = and i8 %32, -2
  %34 = or i8 %33, %31
  store i8 %34, ptr %28, align 8
  %35 = getelementptr inbounds nuw %"class.clang::CodeGen::AggValueSlot", ptr %25, i32 0, i32 2
  %36 = load i8, ptr %13, align 1
  %37 = trunc i8 %36 to i1
  %38 = zext i1 %37 to i8
  %39 = load i8, ptr %35, align 8
  %40 = shl i8 %38, 1
  %41 = and i8 %39, -3
  %42 = or i8 %41, %40
  store i8 %42, ptr %35, align 8
  %43 = getelementptr inbounds nuw %"class.clang::CodeGen::AggValueSlot", ptr %25, i32 0, i32 2
  %44 = load i8, ptr %14, align 1
  %45 = trunc i8 %44 to i1
  %46 = zext i1 %45 to i8
  %47 = load i8, ptr %43, align 8
  %48 = shl i8 %46, 2
  %49 = and i8 %47, -5
  %50 = or i8 %49, %48
  store i8 %50, ptr %43, align 8
  %51 = getelementptr inbounds nuw %"class.clang::CodeGen::AggValueSlot", ptr %25, i32 0, i32 2
  %52 = load i8, ptr %15, align 1
  %53 = trunc i8 %52 to i1
  %54 = zext i1 %53 to i8
  %55 = load i8, ptr %51, align 8
  %56 = shl i8 %54, 3
  %57 = and i8 %55, -9
  %58 = or i8 %57, %56
  store i8 %58, ptr %51, align 8
  %59 = getelementptr inbounds nuw %"class.clang::CodeGen::AggValueSlot", ptr %25, i32 0, i32 2
  %60 = load i8, ptr %16, align 1
  %61 = trunc i8 %60 to i1
  %62 = zext i1 %61 to i8
  %63 = load i8, ptr %59, align 8
  %64 = shl i8 %62, 4
  %65 = and i8 %63, -17
  %66 = or i8 %65, %64
  store i8 %66, ptr %59, align 8
  %67 = getelementptr inbounds nuw %"class.clang::CodeGen::AggValueSlot", ptr %25, i32 0, i32 2
  %68 = load i8, ptr %17, align 1
  %69 = trunc i8 %68 to i1
  %70 = zext i1 %69 to i8
  %71 = load i8, ptr %67, align 8
  %72 = shl i8 %70, 5
  %73 = and i8 %71, -33
  %74 = or i8 %73, %72
  store i8 %74, ptr %67, align 8
  ret void
}

; Function Attrs: mustprogress nounwind uwtable
define linkonce_odr hidden void @_ZN5clang7CodeGen7Address15setKnownNonNullEv(ptr dead_on_unwind noalias writable sret(%"class.clang::CodeGen::Address") align 8 %0, ptr noundef nonnull align 8 dereferenceable(48) %1) #1 comdat align 2 {
  %3 = alloca ptr, align 8
  store ptr %1, ptr %3, align 8
  %4 = load ptr, ptr %3, align 8
  %5 = getelementptr inbounds nuw %"class.clang::CodeGen::Address", ptr %4, i32 0, i32 0
  call void @_ZNR4llvm14PointerIntPairIPNS_5ValueELj1EbNS_21PointerLikeTypeTraitsIS2_EENS_18PointerIntPairInfoIS2_Lj1ES4_EEE6setIntEb(ptr noundef nonnull align 8 dereferenceable(8) %5, i1 noundef zeroext true)
  call void @llvm.memcpy.p0.p0.i64(ptr align 8 %0, ptr align 8 %4, i64 48, i1 false)
  ret void
}

; Function Attrs: mustprogress nounwind uwtable
define linkonce_odr hidden noundef zeroext i1 @_ZNK5clang7CodeGen7Address7isValidEv(ptr noundef nonnull align 8 dereferenceable(48) %0) #1 comdat align 2 {
  %2 = alloca ptr, align 8
  store ptr %0, ptr %2, align 8
  %3 = load ptr, ptr %2, align 8
  %4 = getelementptr inbounds nuw %"class.clang::CodeGen::Address", ptr %3, i32 0, i32 0
  %5 = call noundef ptr @_ZNK4llvm14PointerIntPairIPNS_5ValueELj1EbNS_21PointerLikeTypeTraitsIS2_EENS_18PointerIntPairInfoIS2_Lj1ES4_EEE10getPointerEv(ptr noundef nonnull align 8 dereferenceable(8) %4)
  %6 = icmp ne ptr %5, null
  ret i1 %6
}

; Function Attrs: mustprogress nounwind uwtable
define linkonce_odr hidden void @_ZN5clang7CodeGen7AddressC2EDn(ptr noundef nonnull align 8 dereferenceable(48) %0, ptr %1) unnamed_addr #1 comdat align 2 {
  %3 = alloca ptr, align 8
  %4 = alloca ptr, align 8
  store ptr %0, ptr %3, align 8
  store ptr %1, ptr %4, align 8
  %5 = load ptr, ptr %3, align 8
  %6 = getelementptr inbounds nuw %"class.clang::CodeGen::Address", ptr %5, i32 0, i32 0
  call void @_ZN4llvm14PointerIntPairIPNS_5ValueELj1EbNS_21PointerLikeTypeTraitsIS2_EENS_18PointerIntPairInfoIS2_Lj1ES4_EEEC2Ev(ptr noundef nonnull align 8 dereferenceable(8) %6)
  %7 = getelementptr inbounds nuw %"class.clang::CodeGen::Address", ptr %5, i32 0, i32 1
  store ptr null, ptr %7, align 8
  %8 = getelementptr inbounds nuw %"class.clang::CodeGen::Address", ptr %5, i32 0, i32 2
  call void @_ZN5clang9CharUnitsC2Ev(ptr noundef nonnull align 8 dereferenceable(8) %8) #2
  %9 = getelementptr inbounds nuw %"class.clang::CodeGen::Address", ptr %5, i32 0, i32 3
  call void @_ZN5clang7CodeGen17CGPointerAuthInfoC2Ev(ptr noundef nonnull align 8 dereferenceable(16) %9)
  %10 = getelementptr inbounds nuw %"class.clang::CodeGen::Address", ptr %5, i32 0, i32 4
  store ptr null, ptr %10, align 8
  ret void
}

; Function Attrs: mustprogress nounwind uwtable
define linkonce_odr hidden void @_ZN5clang7CodeGen12AggValueSlot7forAddrENS0_7AddressENS_10QualifiersENS1_14IsDestructed_tENS1_17NeedsGCBarriers_tENS1_11IsAliased_tENS1_9Overlap_tENS1_10IsZeroed_tENS1_20IsSanitizerChecked_tE(ptr dead_on_unwind noalias writable sret(%"class.clang::CodeGen::AggValueSlot") align 8 %0, ptr noundef byval(%"class.clang::CodeGen::Address") align 8 %1, i64 %2, i32 noundef %3, i32 noundef %4, i32 noundef %5, i32 noundef %6, i32 noundef %7, i32 noundef %8) #1 comdat align 2 {
  %10 = alloca %"class.clang::Qualifiers", align 8
  %11 = alloca i32, align 4
  %12 = alloca i32, align 4
  %13 = alloca i32, align 4
  %14 = alloca i32, align 4
  %15 = alloca i32, align 4
  %16 = alloca i32, align 4
  %17 = alloca %"class.clang::CodeGen::Address", align 8
  %18 = alloca %"class.clang::CodeGen::Address", align 8
  %19 = alloca %"class.clang::Qualifiers", align 8
  %20 = getelementptr inbounds nuw %"class.clang::Qualifiers", ptr %10, i32 0, i32 0
  store i64 %2, ptr %20, align 8
  store i32 %3, ptr %11, align 4
  store i32 %4, ptr %12, align 4
  store i32 %5, ptr %13, align 4
  store i32 %6, ptr %14, align 4
  store i32 %7, ptr %15, align 4
  store i32 %8, ptr %16, align 4
  %21 = call noundef zeroext i1 @_ZNK5clang7CodeGen7Address7isValidEv(ptr noundef nonnull align 8 dereferenceable(48) %1)
  br i1 %21, label %22, label %23

22:                                               ; preds = %9
  call void @_ZN5clang7CodeGen7Address15setKnownNonNullEv(ptr dead_on_unwind writable sret(%"class.clang::CodeGen::Address") align 8 %17, ptr noundef nonnull align 8 dereferenceable(48) %1)
  br label %23

23:                                               ; preds = %22, %9
  call void @llvm.memcpy.p0.p0.i64(ptr align 8 %18, ptr align 8 %1, i64 48, i1 false)
  call void @llvm.memcpy.p0.p0.i64(ptr align 8 %19, ptr align 8 %10, i64 8, i1 false)
  %24 = load i32, ptr %11, align 4
  %25 = icmp ne i32 %24, 0
  %26 = load i32, ptr %12, align 4
  %27 = icmp ne i32 %26, 0
  %28 = load i32, ptr %15, align 4
  %29 = icmp ne i32 %28, 0
  %30 = load i32, ptr %13, align 4
  %31 = icmp ne i32 %30, 0
  %32 = load i32, ptr %14, align 4
  %33 = icmp ne i32 %32, 0
  %34 = load i32, ptr %16, align 4
  %35 = icmp ne i32 %34, 0
  %36 = getelementptr inbounds nuw %"class.clang::Qualifiers", ptr %19, i32 0, i32 0
  %37 = load i64, ptr %36, align 8
  call void @_ZN5clang7CodeGen12AggValueSlotC2ENS0_7AddressENS_10QualifiersEbbbbbb(ptr noundef nonnull align 8 dereferenceable(57) %0, ptr noundef byval(%"class.clang::CodeGen::Address") align 8 %18, i64 %37, i1 noundef zeroext %25, i1 noundef zeroext %27, i1 noundef zeroext %29, i1 noundef zeroext %31, i1 noundef zeroext %33, i1 noundef zeroext %35)
  ret void
}

; Function Attrs: mustprogress nounwind uwtable
define linkonce_odr hidden void @_ZN5clang10QualifiersC2Ev(ptr noundef nonnull align 8 dereferenceable(8) %0) unnamed_addr #1 comdat align 2 {
  %2 = alloca ptr, align 8
  store ptr %0, ptr %2, align 8
  %3 = load ptr, ptr %2, align 8
  %4 = getelementptr inbounds nuw %"class.clang::Qualifiers", ptr %3, i32 0, i32 0
  store i64 0, ptr %4, align 8
  ret void
}

; Function Attrs: mustprogress nounwind uwtable
define linkonce_odr hidden void @_ZN5clang7CodeGen7Address7invalidEv(ptr dead_on_unwind noalias writable sret(%"class.clang::CodeGen::Address") align 8 %0) #1 comdat align 2 {
  call void @_ZN5clang7CodeGen7AddressC2EDn(ptr noundef nonnull align 8 dereferenceable(48) %0, ptr null)
  ret void
}

; Function Attrs: mustprogress nounwind uwtable
define linkonce_odr hidden void @_ZN5clang7CodeGen12AggValueSlot7ignoredEv(ptr dead_on_unwind noalias writable sret(%"class.clang::CodeGen::AggValueSlot") align 8 %0) #1 comdat align 2 {
  %2 = alloca %"class.clang::CodeGen::Address", align 8
  %3 = alloca %"class.clang::Qualifiers", align 8
  call void @_ZN5clang7CodeGen7Address7invalidEv(ptr dead_on_unwind writable sret(%"class.clang::CodeGen::Address") align 8 %2)
  call void @llvm.memset.p0.i64(ptr align 8 %3, i8 0, i64 8, i1 false)
  call void @_ZN5clang10QualifiersC2Ev(ptr noundef nonnull align 8 dereferenceable(8) %3) #2
  %4 = getelementptr inbounds nuw %"class.clang::Qualifiers", ptr %3, i32 0, i32 0
  %5 = load i64, ptr %4, align 8
  call void @_ZN5clang7CodeGen12AggValueSlot7forAddrENS0_7AddressENS_10QualifiersENS1_14IsDestructed_tENS1_17NeedsGCBarriers_tENS1_11IsAliased_tENS1_9Overlap_tENS1_10IsZeroed_tENS1_20IsSanitizerChecked_tE(ptr dead_on_unwind writable sret(%"class.clang::CodeGen::AggValueSlot") align 8 %0, ptr noundef byval(%"class.clang::CodeGen::Address") align 8 %2, i64 %5, i32 noundef 0, i32 noundef 0, i32 noundef 0, i32 noundef 0, i32 noundef 0, i32 noundef 0)
  ret void
}

; Function Attrs: mustprogress nounwind uwtable
define dso_local void @_ZN5clang7CodeGen15CodeGenFunction22EmitPseudoObjectLValueEPKNS_16PseudoObjectExprE(ptr dead_on_unwind noalias writable sret(%"class.clang::CodeGen::LValue") align 8 %0, ptr noundef nonnull align 8 dereferenceable(6488) %1, ptr noundef %2) #1 align 2 {
  %4 = alloca ptr, align 8
  %5 = alloca ptr, align 8
  %6 = alloca %"struct.(anonymous namespace)::LValueOrRValue", align 8
  %7 = alloca %"class.clang::CodeGen::AggValueSlot", align 8
  store ptr %1, ptr %4, align 8
  store ptr %2, ptr %5, align 8
  %8 = load ptr, ptr %4, align 8
  %9 = load ptr, ptr %5, align 8
  call void @_ZN5clang7CodeGen12AggValueSlot7ignoredEv(ptr dead_on_unwind writable sret(%"class.clang::CodeGen::AggValueSlot") align 8 %7)
  call void @_ZL20emitPseudoObjectExprRN5clang7CodeGen15CodeGenFunctionEPKNS_16PseudoObjectExprEbNS0_12AggValueSlotE(ptr dead_on_unwind writable sret(%"struct.(anonymous namespace)::LValueOrRValue") align 8 %6, ptr noundef nonnull align 8 dereferenceable(6488) %8, ptr noundef %9, i1 noundef zeroext true, ptr noundef byval(%"class.clang::CodeGen::AggValueSlot") align 8 %7)
  %10 = getelementptr inbounds nuw %"struct.(anonymous namespace)::LValueOrRValue", ptr %6, i32 0, i32 0
  call void @llvm.memcpy.p0.p0.i64(ptr align 8 %0, ptr align 8 %10, i64 136, i1 false)
  ret void
}