; Function Attrs: mustprogress nounwind uwtable
define dso_local void @_ZN5clang7CodeGen15CodeGenFunction22EmitPseudoObjectLValueEPKNS_16PseudoObjectExprE(ptr dead_on_unwind noalias nocapture writable writeonly sret(%"class.clang::CodeGen::LValue") align 8 %0, ptr noundef nonnull align 8 dereferenceable(6488) %1, ptr noundef %2) local_unnamed_addr #0 align 2 {
  %.sroa.4.i = alloca [23 x i8], align 1
  %4 = alloca %"struct.(anonymous namespace)::LValueOrRValue", align 8
  %5 = alloca %"class.clang::CodeGen::AggValueSlot", align 8
  tail call void @llvm.experimental.noalias.scope.decl(metadata !771)
  call void @llvm.lifetime.start.p0(i64 23, ptr nonnull %.sroa.4.i)
  %.sroa.6.0..sroa_idx.i = getelementptr inbounds i8, ptr %5, i64 8
  call void @llvm.memset.p0.i64(ptr noundef nonnull align 8 dereferenceable(16) %.sroa.6.0..sroa_idx.i, i8 0, i64 16, i1 false), !alias.scope !771
  %.sroa.4.i.7.i.7.i.7..sroa_idx = getelementptr inbounds i8, ptr %.sroa.4.i, i64 7
  call void @llvm.memset.p0.i64(ptr noundef nonnull align 1 dereferenceable(16) %.sroa.4.i.7.i.7.i.7..sroa_idx, i8 0, i64 16, i1 false), !alias.scope !774, !noalias !771
  store i64 0, ptr %5, align 8, !alias.scope !771
  %.sroa.64.0..sroa_idx.i = getelementptr inbounds i8, ptr %5, i64 24
  store i8 0, ptr %.sroa.64.0..sroa_idx.i, align 8, !alias.scope !771
  %.sroa.7.0..sroa_idx.i = getelementptr inbounds i8, ptr %5, i64 25
  call void @llvm.memcpy.p0.p0.i64(ptr noundef nonnull align 1 dereferenceable(23) %.sroa.7.0..sroa_idx.i, ptr noundef nonnull align 1 dereferenceable(23) %.sroa.4.i, i64 23, i1 false)
  %6 = getelementptr inbounds nuw i8, ptr %5, i64 48
  store i64 0, ptr %6, align 8, !alias.scope !777
  %7 = getelementptr inbounds nuw i8, ptr %5, i64 56
  store i8 0, ptr %7, align 8, !alias.scope !777
  call void @llvm.lifetime.end.p0(i64 23, ptr nonnull %.sroa.4.i)
  call fastcc void @_ZL20emitPseudoObjectExprRN5clang7CodeGen15CodeGenFunctionEPKNS_16PseudoObjectExprEbNS0_12AggValueSlotE(ptr dead_on_unwind noalias nonnull writable align 8 %4, ptr noundef nonnull align 8 dereferenceable(6488) %1, ptr noundef %2, i1 noundef zeroext true, ptr noundef nonnull byval(%"class.clang::CodeGen::AggValueSlot") align 8 %5)
  call void @llvm.memcpy.p0.p0.i64(ptr noundef nonnull align 8 dereferenceable(136) %0, ptr noundef nonnull align 8 dereferenceable(136) %4, i64 136, i1 false)
  ret void
}